; Function Attrs: mustprogress norecurse uwtable
define internal fastcc void @"_ZN6google7logging8internal12Check_GEImplI3$_2S3_EESt10unique_ptrINSt7__cxx1112basic_stringIcSt11char_traitsIcESaIcEEESt14default_deleteISA_EERKT_RKT0_PKc"(ptr dead_on_unwind noalias writable align 8 %0, ptr nocapture noundef nonnull readonly align 4 dereferenceable(4) %1, ptr nocapture noundef nonnull readonly align 4 dereferenceable(4) %2, ptr noundef %3) unnamed_addr #13 personality ptr @__gxx_personality_v0 {
  %5 = alloca %"class.google::logging::internal::CheckOpMessageBuilder", align 8
  %6 = load i32, ptr %1, align 4
  %7 = load i32, ptr %2, align 4
  %.not = icmp slt i32 %6, %7
  br i1 %.not, label %9, label %8

8:                                                ; preds = %4
  store ptr null, ptr %0, align 8
  br label %17

9:                                                ; preds = %4
  call void @llvm.lifetime.start.p0(i64 8, ptr nonnull %5)
  call void @_ZN6google7logging8internal21CheckOpMessageBuilderC1EPKc(ptr noundef nonnull align 8 dereferenceable(8) %5, ptr noundef %3), !noalias !310
  %10 = load ptr, ptr %5, align 8, !noalias !310
  %.val.i = load i32, ptr %1, align 4, !noalias !310
  %11 = invoke noundef nonnull align 8 dereferenceable(8) ptr @_ZNSolsEi(ptr noundef nonnull align 8 dereferenceable(8) %10, i32 noundef %.val.i)
          to label %"_ZN6google7logging8internal22MakeCheckOpValueStringI3$_2EEvPSoRKT_.exit.i" unwind label %15, !noalias !310

"_ZN6google7logging8internal22MakeCheckOpValueStringI3$_2EEvPSoRKT_.exit.i": ; preds = %9
  %12 = invoke noundef ptr @_ZN6google7logging8internal21CheckOpMessageBuilder7ForVar2Ev(ptr noundef nonnull align 8 dereferenceable(8) %5)
          to label %13 unwind label %15, !noalias !310

13:                                               ; preds = %"_ZN6google7logging8internal22MakeCheckOpValueStringI3$_2EEvPSoRKT_.exit.i"
  %.val4.i = load i32, ptr %2, align 4, !noalias !310
  %14 = invoke noundef nonnull align 8 dereferenceable(8) ptr @_ZNSolsEi(ptr noundef nonnull align 8 dereferenceable(8) %12, i32 noundef %.val4.i)
          to label %"_ZN6google7logging8internal22MakeCheckOpValueStringI3$_2EEvPSoRKT_.exit5.i" unwind label %15, !noalias !310

"_ZN6google7logging8internal22MakeCheckOpValueStringI3$_2EEvPSoRKT_.exit5.i": ; preds = %13
  invoke void @_ZN6google7logging8internal21CheckOpMessageBuilder9NewStringB5cxx11Ev(ptr dead_on_unwind writable sret(%"class.std::unique_ptr") align 8 %0, ptr noundef nonnull align 8 dereferenceable(8) %5)
          to label %"_ZN6google7logging8internal17MakeCheckOpStringI3$_2S3_EESt10unique_ptrINSt7__cxx1112basic_stringIcSt11char_traitsIcESaIcEEESt14default_deleteISA_EERKT_RKT0_PKc.exit" unwind label %15

15:                                               ; preds = %"_ZN6google7logging8internal22MakeCheckOpValueStringI3$_2EEvPSoRKT_.exit5.i", %13, %"_ZN6google7logging8internal22MakeCheckOpValueStringI3$_2EEvPSoRKT_.exit.i", %9
  %16 = landingpad { ptr, i32 }
          cleanup
  call void @_ZN6google7logging8internal21CheckOpMessageBuilderD1Ev(ptr noundef nonnull align 8 dereferenceable(8) %5) #35
  resume { ptr, i32 } %16

"_ZN6google7logging8internal17MakeCheckOpStringI3$_2S3_EESt10unique_ptrINSt7__cxx1112basic_stringIcSt11char_traitsIcESaIcEEESt14default_deleteISA_EERKT_RKT0_PKc.exit": ; preds = %"_ZN6google7logging8internal22MakeCheckOpValueStringI3$_2EEvPSoRKT_.exit5.i"
  call void @_ZN6google7logging8internal21CheckOpMessageBuilderD1Ev(ptr noundef nonnull align 8 dereferenceable(8) %5) #35
  call void @llvm.lifetime.end.p0(i64 8, ptr nonnull %5)
  br label %17

17:                                               ; preds = %"_ZN6google7logging8internal17MakeCheckOpStringI3$_2S3_EESt10unique_ptrINSt7__cxx1112basic_stringIcSt11char_traitsIcESaIcEEESt14default_deleteISA_EERKT_RKT0_PKc.exit", %8
  ret void
}